target datalayout = "e-m:e-p270:32:32-p271:32:32-p272:64:64-i64:64-i128:128-f80:128-n8:16:32:64-S128"
target triple = "x86_64-pc-linux-gnu"

%struct.timeval = type { i64, i64 }
%struct.pmix_data_buffer = type { ptr, ptr, ptr, i64, i64 }
%struct.pmix_list_t = type { %struct.pmix_object_t, %struct.pmix_list_item_t, i64 }
%struct.pmix_object_t = type { %union.pthread_mutex_t, ptr, i32, %struct.pmix_tma }
%union.pthread_mutex_t = type { %struct.__pthread_mutex_s }
%struct.__pthread_mutex_s = type { i32, i32, i32, i32, i32, i16, i16, %struct.__pthread_internal_list }
%struct.__pthread_internal_list = type { ptr, ptr }
%struct.pmix_tma = type { ptr, ptr, ptr, ptr, ptr, ptr, ptr, ptr }
%struct.pmix_list_item_t = type { %struct.pmix_object_t, ptr, ptr, i32 }
%struct.prte_plm_base_module_1_0_0_t = type { ptr, ptr, ptr, ptr, ptr, ptr, ptr, ptr, ptr }
%struct.pmix_class_t = type { ptr, ptr, ptr, ptr, i32, i32, ptr, ptr, i64 }
%struct.prte_process_info_t = type { %struct.pmix_proc, %struct.pmix_proc, ptr, %struct.pmix_proc, i32, i32, i32, ptr, ptr, i32, i8, ptr, i16, ptr, ptr, i8, ptr, i8 }
%struct.pmix_proc = type { [256 x i8], i32 }
%struct.prte_plm_globals_t = type { ptr, i32, %struct.timeval, %struct.pmix_data_buffer, i8, i64, %struct.pmix_list_t, i8, ptr }

@prte_process_info = external global %struct.prte_process_info_t, align 8
@.str.6 = private unnamed_addr constant [37 x i8] c"PRTE ERROR: %s in file %s at line %d\00", align 1
@.str.7 = private unnamed_addr constant [22 x i8] c"base/plm_base_frame.c\00", align 1

; Function Attrs: inlinehint nounwind uwtable
define internal void @pmix_obj_run_destructors(ptr noundef %0) #2 {
  %2 = alloca ptr, align 8
  %3 = alloca ptr, align 8
  store ptr %0, ptr %2, align 8, !tbaa !57
  call void @llvm.lifetime.start.p0(i64 8, ptr %3) #10
  %4 = load ptr, ptr %2, align 8, !tbaa !57
  %5 = getelementptr inbounds nuw %struct.pmix_object_t, ptr %4, i32 0, i32 1
  %6 = load ptr, ptr %5, align 8, !tbaa !48
  %7 = getelementptr inbounds nuw %struct.pmix_class_t, ptr %6, i32 0, i32 7
  %8 = load ptr, ptr %7, align 8, !tbaa !79
  store ptr %8, ptr %3, align 8, !tbaa !24
  br label %9

9:                                                ; preds = %13, %1
  %10 = load ptr, ptr %3, align 8, !tbaa !24
  %11 = load ptr, ptr %10, align 8, !tbaa !24
  %12 = icmp ne ptr null, %11
  br i1 %12, label %13, label %19

13:                                               ; preds = %9
  %14 = load ptr, ptr %3, align 8, !tbaa !24
  %15 = load ptr, ptr %14, align 8, !tbaa !24
  %16 = load ptr, ptr %2, align 8, !tbaa !57
  call void %15(ptr noundef %16)
  %17 = load ptr, ptr %3, align 8, !tbaa !24
  %18 = getelementptr inbounds nuw ptr, ptr %17, i32 1
  store ptr %18, ptr %3, align 8, !tbaa !24
  br label %9, !llvm.loop !80

19:                                               ; preds = %9
  call void @llvm.lifetime.end.p0(i64 8, ptr %3) #10
  ret void
}

; Function Attrs: inlinehint nounwind uwtable
define internal ptr @pmix_list_remove_first(ptr noundef %0) #2 {
  %2 = alloca ptr, align 8
  %3 = alloca ptr, align 8
  %4 = alloca ptr, align 8
  %5 = alloca i32, align 4
  store ptr %0, ptr %3, align 8, !tbaa !72
  call void @llvm.lifetime.start.p0(i64 8, ptr %4) #10
  %6 = load ptr, ptr %3, align 8, !tbaa !72
  %7 = getelementptr inbounds nuw %struct.pmix_list_t, ptr %6, i32 0, i32 2
  %8 = load volatile i64, ptr %7, align 8, !tbaa !74
  %9 = icmp eq i64 0, %8
  br i1 %9, label %10, label %11

10:                                               ; preds = %1
  store ptr null, ptr %2, align 8
  store i32 1, ptr %5, align 4
  br label %34

11:                                               ; preds = %1
  %12 = load ptr, ptr %3, align 8, !tbaa !72
  %13 = getelementptr inbounds nuw %struct.pmix_list_t, ptr %12, i32 0, i32 2
  %14 = load volatile i64, ptr %13, align 8, !tbaa !74
  %15 = add i64 %14, -1
  store volatile i64 %15, ptr %13, align 8, !tbaa !74
  %16 = load ptr, ptr %3, align 8, !tbaa !72
  %17 = getelementptr inbounds nuw %struct.pmix_list_t, ptr %16, i32 0, i32 1
  %18 = getelementptr inbounds nuw %struct.pmix_list_item_t, ptr %17, i32 0, i32 1
  %19 = load ptr, ptr %18, align 8, !tbaa !75
  store ptr %19, ptr %4, align 8, !tbaa !76
  %20 = load ptr, ptr %4, align 8, !tbaa !76
  %21 = getelementptr inbounds nuw %struct.pmix_list_item_t, ptr %20, i32 0, i32 2
  %22 = load volatile ptr, ptr %21, align 8, !tbaa !77
  %23 = load ptr, ptr %4, align 8, !tbaa !76
  %24 = getelementptr inbounds nuw %struct.pmix_list_item_t, ptr %23, i32 0, i32 1
  %25 = load volatile ptr, ptr %24, align 8, !tbaa !78
  %26 = getelementptr inbounds nuw %struct.pmix_list_item_t, ptr %25, i32 0, i32 2
  store volatile ptr %22, ptr %26, align 8, !tbaa !77
  %27 = load ptr, ptr %4, align 8, !tbaa !76
  %28 = getelementptr inbounds nuw %struct.pmix_list_item_t, ptr %27, i32 0, i32 1
  %29 = load volatile ptr, ptr %28, align 8, !tbaa !78
  %30 = load ptr, ptr %3, align 8, !tbaa !72
  %31 = getelementptr inbounds nuw %struct.pmix_list_t, ptr %30, i32 0, i32 1
  %32 = getelementptr inbounds nuw %struct.pmix_list_item_t, ptr %31, i32 0, i32 1
  store ptr %29, ptr %32, align 8, !tbaa !75
  %33 = load ptr, ptr %4, align 8, !tbaa !76
  store ptr %33, ptr %2, align 8
  store i32 1, ptr %5, align 4
  br label %34

34:                                               ; preds = %11, %10
  call void @llvm.lifetime.end.p0(i64 8, ptr %4) #10
  %35 = load ptr, ptr %2, align 8
  ret ptr %35
}

; Function Attrs: nounwind uwtable
define internal i32 @prte_plm_base_close() #0 {
  %1 = alloca i32, align 4
  %2 = alloca i32, align 4
  %3 = alloca i32, align 4
  call void @llvm.lifetime.start.p0(i64 4, ptr %2) #10
  %4 = load ptr, ptr getelementptr inbounds nuw (%struct.prte_plm_base_module_1_0_0_t, ptr @prte_plm, i32 0, i32 8), align 8, !tbaa !50
  %5 = icmp ne ptr null, %4
  br i1 %5, label %6, label %9

6:                                                ; preds = %0
  %7 = load ptr, ptr getelementptr inbounds nuw (%struct.prte_plm_base_module_1_0_0_t, ptr @prte_plm, i32 0, i32 8), align 8, !tbaa !50
  %8 = call i32 %7()
  br label %9

9:                                                ; preds = %6, %0
  %10 = load i8, ptr getelementptr inbounds nuw (%struct.prte_process_info_t, ptr @prte_process_info, i32 0, i32 10), align 4, !tbaa !52
  %11 = zext i8 %10 to i32
  %12 = and i32 4, %11
  %13 = icmp ne i32 %12, 0
  br i1 %13, label %14, label %29

14:                                               ; preds = %9
  %15 = call i32 @prte_plm_base_comm_stop()
  store i32 %15, ptr %2, align 4, !tbaa !8
  %16 = icmp ne i32 0, %15
  br i1 %16, label %17, label %28

17:                                               ; preds = %14
  br label %18

18:                                               ; preds = %17
  %19 = load i32, ptr %2, align 4, !tbaa !8
  %20 = icmp ne i32 -43, %19
  br i1 %20, label %21, label %24

21:                                               ; preds = %18
  %22 = load i32, ptr %2, align 4, !tbaa !8
  %23 = call ptr @prte_strerror(i32 noundef %22)
  call void (i32, ptr, ...) @pmix_output(i32 noundef 0, ptr noundef @.str.6, ptr noundef %23, ptr noundef @.str.7, i32 noundef 132)
  br label %24

24:                                               ; preds = %21, %18
  br label %25

25:                                               ; preds = %24
  br label %26

26:                                               ; preds = %25
  %27 = load i32, ptr %2, align 4, !tbaa !8
  store i32 %27, ptr %1, align 4
  store i32 1, ptr %3, align 4
  br label %44

28:                                               ; preds = %14
  br label %29

29:                                               ; preds = %28, %9
  %30 = load ptr, ptr @prte_plm_globals, align 8, !tbaa !54
  %31 = icmp ne ptr null, %30
  br i1 %31, label %32, label %34

32:                                               ; preds = %29
  %33 = load ptr, ptr @prte_plm_globals, align 8, !tbaa !54
  call void @free(ptr noundef %33) #10
  br label %34

34:                                               ; preds = %32, %29
  br label %35

35:                                               ; preds = %38, %34
  %36 = call ptr @pmix_list_remove_first(ptr noundef getelementptr inbounds nuw (%struct.prte_plm_globals_t, ptr @prte_plm_globals, i32 0, i32 6))
  %37 = icmp ne ptr null, %36
  br i1 %37, label %38, label %39

38:                                               ; preds = %35
  br label %35, !llvm.loop !55

39:                                               ; preds = %35
  br label %40

40:                                               ; preds = %39
  call void @pmix_obj_run_destructors(ptr noundef getelementptr inbounds nuw (%struct.prte_plm_globals_t, ptr @prte_plm_globals, i32 0, i32 6))
  br label %41

41:                                               ; preds = %40
  br label %42

42:                                               ; preds = %41
  %43 = call i32 @pmix_mca_base_framework_components_close(ptr noundef @prte_plm_base_framework, ptr noundef null)
  store i32 %43, ptr %1, align 4
  store i32 1, ptr %3, align 4
  br label %44

44:                                               ; preds = %42, %26
  call void @llvm.lifetime.end.p0(i64 4, ptr %2) #10
  %45 = load i32, ptr %1, align 4
  ret i32 %45
}