; Function Attrs: nounwind uwtable
define internal i32 @prte_plm_base_close() #0 {
  %1 = load ptr, ptr getelementptr inbounds nuw (i8, ptr @prte_plm, i64 64), align 8, !tbaa !51
  %.not = icmp eq ptr %1, null
  br i1 %.not, label %4, label %2

2:                                                ; preds = %0
  %3 = tail call i32 %1() #10
  br label %4

4:                                                ; preds = %2, %0
  %5 = load i8, ptr getelementptr inbounds nuw (i8, ptr @prte_process_info, i64 820), align 4, !tbaa !53
  %6 = and i8 %5, 4
  %.not7 = icmp eq i8 %6, 0
  br i1 %.not7, label %11, label %7

7:                                                ; preds = %4
  %8 = tail call i32 @prte_plm_base_comm_stop() #10
  switch i32 %8, label %9 [
    i32 0, label %11
    i32 -43, label %36
  ]

9:                                                ; preds = %7
  %10 = tail call ptr @prte_strerror(i32 noundef %8) #10
  tail call void (i32, ptr, ...) @pmix_output(i32 noundef 0, ptr noundef nonnull @.str.6, ptr noundef %10, ptr noundef nonnull @.str.7, i32 noundef 132) #10
  br label %36

11:                                               ; preds = %7, %4
  %12 = load ptr, ptr @prte_plm_globals, align 8, !tbaa !55
  %.not9 = icmp eq ptr %12, null
  br i1 %.not9, label %14, label %13

13:                                               ; preds = %11
  tail call void @free(ptr noundef nonnull %12) #10
  br label %14

14:                                               ; preds = %13, %11
  %.promoted = load ptr, ptr getelementptr inbounds nuw (i8, ptr @prte_plm_globals, i64 328), align 8
  %15 = load volatile i64, ptr getelementptr inbounds nuw (i8, ptr @prte_plm_globals, i64 352), align 8, !tbaa !56
  %16 = icmp eq i64 %15, 0
  br i1 %16, label %._crit_edge, label %pmix_list_remove_first.exit

pmix_list_remove_first.exit:                      ; preds = %14, %pmix_list_remove_first.exit
  %17 = phi ptr [ %25, %pmix_list_remove_first.exit ], [ %.promoted, %14 ]
  %18 = load volatile i64, ptr getelementptr inbounds nuw (i8, ptr @prte_plm_globals, i64 352), align 8, !tbaa !56
  %19 = add i64 %18, -1
  store volatile i64 %19, ptr getelementptr inbounds nuw (i8, ptr @prte_plm_globals, i64 352), align 8, !tbaa !56
  %20 = getelementptr inbounds nuw i8, ptr %17, i64 128
  %21 = load volatile ptr, ptr %20, align 8, !tbaa !57
  %22 = getelementptr inbounds nuw i8, ptr %17, i64 120
  %23 = load volatile ptr, ptr %22, align 8, !tbaa !58
  %24 = getelementptr inbounds nuw i8, ptr %23, i64 128
  store volatile ptr %21, ptr %24, align 8, !tbaa !57
  %25 = load volatile ptr, ptr %22, align 8, !tbaa !58
  store ptr %25, ptr getelementptr inbounds nuw (i8, ptr @prte_plm_globals, i64 328), align 8, !tbaa !59
  %26 = load volatile i64, ptr getelementptr inbounds nuw (i8, ptr @prte_plm_globals, i64 352), align 8, !tbaa !56
  %27 = icmp eq i64 %26, 0
  br i1 %27, label %._crit_edge, label %pmix_list_remove_first.exit, !llvm.loop !60

._crit_edge:                                      ; preds = %pmix_list_remove_first.exit, %14
  %28 = load ptr, ptr getelementptr inbounds nuw (i8, ptr @prte_plm_globals, i64 128), align 8, !tbaa !45
  %29 = getelementptr inbounds nuw i8, ptr %28, i64 48
  %30 = load ptr, ptr %29, align 8, !tbaa !61
  %31 = load ptr, ptr %30, align 8, !tbaa !48
  %.not6.i = icmp eq ptr %31, null
  br i1 %.not6.i, label %pmix_obj_run_destructors.exit, label %.lr.ph.i

.lr.ph.i:                                         ; preds = %._crit_edge, %.lr.ph.i
  %32 = phi ptr [ %34, %.lr.ph.i ], [ %31, %._crit_edge ]
  %.07.i = phi ptr [ %33, %.lr.ph.i ], [ %30, %._crit_edge ]
  tail call void %32(ptr noundef nonnull getelementptr inbounds nuw (i8, ptr @prte_plm_globals, i64 88)) #10
  %33 = getelementptr inbounds nuw i8, ptr %.07.i, i64 8
  %34 = load ptr, ptr %33, align 8, !tbaa !48
  %.not.i = icmp eq ptr %34, null
  br i1 %.not.i, label %pmix_obj_run_destructors.exit, label %.lr.ph.i, !llvm.loop !62

pmix_obj_run_destructors.exit:                    ; preds = %.lr.ph.i, %._crit_edge
  %35 = tail call i32 @pmix_mca_base_framework_components_close(ptr noundef nonnull @prte_plm_base_framework, ptr noundef null) #10
  br label %36

36:                                               ; preds = %9, %7, %pmix_obj_run_destructors.exit
  %.0 = phi i32 [ %35, %pmix_obj_run_destructors.exit ], [ %8, %7 ], [ %8, %9 ]
  ret i32 %.0
}